; Function Attrs: mustprogress nounwind willreturn uwtable
define void @Bac_ManWriteBacNtk(ptr noundef captures(none) %0, ptr noundef readonly captures(none) %1) local_unnamed_addr #10 {
  %3 = getelementptr i8, ptr %1, i64 88
  %.val = load ptr, ptr %3, align 8
  %4 = getelementptr i8, ptr %1, i64 84
  %.val12 = load i32, ptr %4, align 4
  %5 = getelementptr inbounds nuw i8, ptr %0, i64 4
  %6 = load i32, ptr %5, align 4
  %7 = add nsw i32 %6, %.val12
  %8 = load i32, ptr %0, align 8
  %9 = icmp sgt i32 %7, %8
  br i1 %9, label %10, label %Vec_StrPushBuffer.exit

10:                                               ; preds = %2
  %11 = shl nsw i32 %7, 1
  %.not.i.i = icmp slt i32 %8, %11
  br i1 %.not.i.i, label %12, label %Vec_StrPushBuffer.exit

12:                                               ; preds = %10
  %13 = getelementptr inbounds nuw i8, ptr %0, i64 8
  %14 = load ptr, ptr %13, align 8
  %.not9.i.i = icmp eq ptr %14, null
  %15 = sext i32 %11 to i64
  br i1 %.not9.i.i, label %18, label %16

16:                                               ; preds = %12
  %17 = tail call ptr @realloc(ptr noundef nonnull %14, i64 noundef %15) #18
  %.pre.pre.i = load i32, ptr %5, align 4
  br label %20

18:                                               ; preds = %12
  %19 = tail call noalias ptr @malloc(i64 noundef %15) #19
  br label %20

20:                                               ; preds = %18, %16
  %.pre.i = phi i32 [ %.pre.pre.i, %16 ], [ %6, %18 ]
  %21 = phi ptr [ %17, %16 ], [ %19, %18 ]
  store ptr %21, ptr %13, align 8
  store i32 %11, ptr %0, align 8
  br label %Vec_StrPushBuffer.exit

Vec_StrPushBuffer.exit:                           ; preds = %2, %10, %20
  %22 = phi i32 [ %.pre.i, %20 ], [ %6, %10 ], [ %6, %2 ]
  %23 = getelementptr inbounds nuw i8, ptr %0, i64 8
  %24 = load ptr, ptr %23, align 8
  %25 = sext i32 %22 to i64
  %26 = getelementptr inbounds i8, ptr %24, i64 %25
  %27 = sext i32 %.val12 to i64
  tail call void @llvm.memcpy.p0.p0.i64(ptr align 1 %26, ptr readonly align 1 %.val, i64 %27, i1 false)
  %28 = load i32, ptr %5, align 4
  %29 = add nsw i32 %28, %.val12
  store i32 %29, ptr %5, align 4
  %30 = getelementptr i8, ptr %1, i64 104
  %.val10 = load ptr, ptr %30, align 8
  %.val11 = load i32, ptr %4, align 4
  %31 = shl nsw i32 %.val11, 2
  %32 = add nsw i32 %31, %29
  %33 = load i32, ptr %0, align 8
  %34 = icmp sgt i32 %32, %33
  br i1 %34, label %35, label %Vec_StrPushBuffer.exit.Vec_StrPushBuffer.exit18_crit_edge

Vec_StrPushBuffer.exit.Vec_StrPushBuffer.exit18_crit_edge: ; preds = %Vec_StrPushBuffer.exit
  %.pre = load ptr, ptr %23, align 8
  br label %Vec_StrPushBuffer.exit18

35:                                               ; preds = %Vec_StrPushBuffer.exit
  %36 = shl nsw i32 %32, 1
  %.not.i.i14 = icmp slt i32 %33, %36
  %.pre24 = load ptr, ptr %23, align 8
  br i1 %.not.i.i14, label %37, label %Vec_StrPushBuffer.exit18

37:                                               ; preds = %35
  %.not9.i.i15 = icmp eq ptr %.pre24, null
  %38 = sext i32 %36 to i64
  br i1 %.not9.i.i15, label %41, label %39

39:                                               ; preds = %37
  %40 = tail call ptr @realloc(ptr noundef nonnull %.pre24, i64 noundef %38) #18
  %.pre.pre.i16 = load i32, ptr %5, align 4
  br label %43

41:                                               ; preds = %37
  %42 = tail call noalias ptr @malloc(i64 noundef %38) #19
  br label %43

43:                                               ; preds = %41, %39
  %.pre.i17 = phi i32 [ %.pre.pre.i16, %39 ], [ %29, %41 ]
  %44 = phi ptr [ %40, %39 ], [ %42, %41 ]
  store ptr %44, ptr %23, align 8
  store i32 %36, ptr %0, align 8
  br label %Vec_StrPushBuffer.exit18

Vec_StrPushBuffer.exit18:                         ; preds = %Vec_StrPushBuffer.exit.Vec_StrPushBuffer.exit18_crit_edge, %35, %43
  %45 = phi ptr [ %44, %43 ], [ %.pre24, %35 ], [ %.pre, %Vec_StrPushBuffer.exit.Vec_StrPushBuffer.exit18_crit_edge ]
  %46 = phi i32 [ %.pre.i17, %43 ], [ %29, %35 ], [ %29, %Vec_StrPushBuffer.exit.Vec_StrPushBuffer.exit18_crit_edge ]
  %47 = sext i32 %46 to i64
  %48 = getelementptr inbounds i8, ptr %45, i64 %47
  %49 = sext i32 %31 to i64
  tail call void @llvm.memcpy.p0.p0.i64(ptr align 1 %48, ptr readonly align 1 %.val10, i64 %49, i1 false)
  %50 = load i32, ptr %5, align 4
  %51 = add nsw i32 %50, %31
  store i32 %51, ptr %5, align 4
  %52 = getelementptr i8, ptr %1, i64 72
  %.val9 = load ptr, ptr %52, align 8
  %53 = getelementptr i8, ptr %1, i64 68
  %.val13 = load i32, ptr %53, align 4
  %54 = sdiv i32 %.val13, 3
  %55 = mul nsw i32 %54, 12
  %56 = add nsw i32 %55, %51
  %57 = load i32, ptr %0, align 8
  %58 = icmp sgt i32 %56, %57
  br i1 %58, label %59, label %Vec_StrPushBuffer.exit18.Vec_StrPushBuffer.exit23_crit_edge

Vec_StrPushBuffer.exit18.Vec_StrPushBuffer.exit23_crit_edge: ; preds = %Vec_StrPushBuffer.exit18
  %.pre25 = load ptr, ptr %23, align 8
  br label %Vec_StrPushBuffer.exit23

59:                                               ; preds = %Vec_StrPushBuffer.exit18
  %60 = shl nsw i32 %56, 1
  %.not.i.i19 = icmp slt i32 %57, %60
  %.pre26 = load ptr, ptr %23, align 8
  br i1 %.not.i.i19, label %61, label %Vec_StrPushBuffer.exit23

61:                                               ; preds = %59
  %.not9.i.i20 = icmp eq ptr %.pre26, null
  %62 = sext i32 %60 to i64
  br i1 %.not9.i.i20, label %65, label %63

63:                                               ; preds = %61
  %64 = tail call ptr @realloc(ptr noundef nonnull %.pre26, i64 noundef %62) #18
  %.pre.pre.i21 = load i32, ptr %5, align 4
  br label %67

65:                                               ; preds = %61
  %66 = tail call noalias ptr @malloc(i64 noundef %62) #19
  br label %67

67:                                               ; preds = %65, %63
  %.pre.i22 = phi i32 [ %.pre.pre.i21, %63 ], [ %51, %65 ]
  %68 = phi ptr [ %64, %63 ], [ %66, %65 ]
  store ptr %68, ptr %23, align 8
  store i32 %60, ptr %0, align 8
  br label %Vec_StrPushBuffer.exit23

Vec_StrPushBuffer.exit23:                         ; preds = %Vec_StrPushBuffer.exit18.Vec_StrPushBuffer.exit23_crit_edge, %59, %67
  %69 = phi ptr [ %68, %67 ], [ %.pre26, %59 ], [ %.pre25, %Vec_StrPushBuffer.exit18.Vec_StrPushBuffer.exit23_crit_edge ]
  %70 = phi i32 [ %.pre.i22, %67 ], [ %51, %59 ], [ %51, %Vec_StrPushBuffer.exit18.Vec_StrPushBuffer.exit23_crit_edge ]
  %71 = sext i32 %70 to i64
  %72 = getelementptr inbounds i8, ptr %69, i64 %71
  %73 = sext i32 %55 to i64
  tail call void @llvm.memcpy.p0.p0.i64(ptr align 1 %72, ptr readonly align 1 %.val9, i64 %73, i1 false)
  %74 = load i32, ptr %5, align 4
  %75 = add nsw i32 %74, %55
  store i32 %75, ptr %5, align 4
  ret void
}